target datalayout = "e-m:e-p270:32:32-p271:32:32-p272:64:64-i64:64-i128:128-f80:128-n8:16:32:64-S128"
target triple = "x86_64-pc-linux-gnu"

%struct.stbrp_context = type { i32, i32, i32, i32, i32, i32, ptr, ptr, [2 x %struct.stbrp_node] }
%struct.stbrp_node = type { i32, i32, ptr }

; Function Attrs: nounwind uwtable
define hidden void @stbrp_setup_heuristic(ptr noundef %0, i32 noundef %1) #0 {
  %3 = alloca ptr, align 8
  %4 = alloca i32, align 4
  store ptr %0, ptr %3, align 8
  store i32 %1, ptr %4, align 4
  %5 = load ptr, ptr %3, align 8
  %6 = getelementptr inbounds nuw %struct.stbrp_context, ptr %5, i32 0, i32 3
  %7 = load i32, ptr %6, align 4
  switch i32 %7, label %12 [
    i32 1, label %8
  ]

8:                                                ; preds = %2
  %9 = load i32, ptr %4, align 4
  %10 = load ptr, ptr %3, align 8
  %11 = getelementptr inbounds nuw %struct.stbrp_context, ptr %10, i32 0, i32 4
  store i32 %9, ptr %11, align 8
  br label %13

12:                                               ; preds = %2
  br label %13

13:                                               ; preds = %12, %8
  ret void
}